; Function Attrs: nounwind uwtable
define hidden i32 @_glfwGetPhysicalDevicePresentationSupportX11(ptr noundef %0, ptr noundef %1, i32 noundef %2) local_unnamed_addr #0 {
  %4 = load ptr, ptr getelementptr inbounds nuw (i8, ptr @_glfw, i64 141992), align 8, !tbaa !438
  %5 = load ptr, ptr getelementptr inbounds nuw (i8, ptr @_glfw, i64 137840), align 8, !tbaa !93
  %6 = getelementptr inbounds nuw i8, ptr %5, i64 232
  %7 = load ptr, ptr %6, align 8, !tbaa !184
  %8 = load i32, ptr getelementptr inbounds nuw (i8, ptr @_glfw, i64 137848), align 8, !tbaa !185
  %9 = sext i32 %8 to i64
  %10 = getelementptr inbounds %struct.Screen, ptr %7, i64 %9, i32 10
  %11 = load ptr, ptr %10, align 8, !tbaa !186
  %12 = tail call i64 %4(ptr noundef %11) #17
  %13 = load i32, ptr getelementptr inbounds nuw (i8, ptr @_glfw, i64 133860), align 4, !tbaa !437
  %14 = icmp ne i32 %13, 0
  %15 = load ptr, ptr getelementptr inbounds nuw (i8, ptr @_glfw, i64 142496), align 8
  %16 = icmp ne ptr %15, null
  %or.cond = select i1 %14, i1 %16, i1 false
  %17 = load ptr, ptr getelementptr inbounds nuw (i8, ptr @_glfw, i64 133832), align 8, !tbaa !439
  br i1 %or.cond, label %18, label %28

18:                                               ; preds = %3
  %19 = tail call ptr %17(ptr noundef %0, ptr noundef nonnull @.str.24) #17
  %.not18 = icmp eq ptr %19, null
  br i1 %.not18, label %20, label %21

20:                                               ; preds = %18
  tail call void (i32, ptr, ...) @_glfwInputError(i32 noundef 65542, ptr noundef nonnull @.str.25) #17
  br label %34

21:                                               ; preds = %18
  %22 = load ptr, ptr getelementptr inbounds nuw (i8, ptr @_glfw, i64 142504), align 8, !tbaa !440
  %23 = load ptr, ptr getelementptr inbounds nuw (i8, ptr @_glfw, i64 137840), align 8, !tbaa !93
  %24 = tail call ptr %22(ptr noundef %23) #17
  %.not19 = icmp eq ptr %24, null
  br i1 %.not19, label %25, label %26

25:                                               ; preds = %21
  tail call void (i32, ptr, ...) @_glfwInputError(i32 noundef 65544, ptr noundef nonnull @.str.26) #17
  br label %34

26:                                               ; preds = %21
  %27 = tail call i32 %19(ptr noundef %1, i32 noundef %2, ptr noundef nonnull %24, i64 noundef %12) #17
  br label %34

28:                                               ; preds = %3
  %29 = tail call ptr %17(ptr noundef %0, ptr noundef nonnull @.str.27) #17
  %.not = icmp eq ptr %29, null
  br i1 %.not, label %30, label %31

30:                                               ; preds = %28
  tail call void (i32, ptr, ...) @_glfwInputError(i32 noundef 65542, ptr noundef nonnull @.str.28) #17
  br label %34

31:                                               ; preds = %28
  %32 = load ptr, ptr getelementptr inbounds nuw (i8, ptr @_glfw, i64 137840), align 8, !tbaa !93
  %33 = tail call i32 %29(ptr noundef %1, i32 noundef %2, ptr noundef %32, i64 noundef %12) #17
  br label %34

34:                                               ; preds = %30, %31, %20, %26, %25
  %.2 = phi i32 [ 0, %20 ], [ %27, %26 ], [ 0, %25 ], [ %33, %31 ], [ 0, %30 ]
  ret i32 %.2
}